target datalayout = "e-m:e-p270:32:32-p271:32:32-p272:64:64-i64:64-i128:128-f80:128-n8:16:32:64-S128"
target triple = "x86_64-pc-linux-gnu"

%struct.nghttp2_map = type { ptr, ptr, i64, i64 }

; Function Attrs: nounwind uwtable
define hidden void @nghttp2_map_clear(ptr noundef %0) #0 {
  %2 = alloca ptr, align 8
  store ptr %0, ptr %2, align 8, !tbaa !3
  %3 = load ptr, ptr %2, align 8, !tbaa !3
  %4 = getelementptr inbounds nuw %struct.nghttp2_map, ptr %3, i32 0, i32 2
  %5 = load i64, ptr %4, align 8, !tbaa !15
  %6 = icmp eq i64 %5, 0
  br i1 %6, label %7, label %8

7:                                                ; preds = %1
  br label %21

8:                                                ; preds = %1
  %9 = load ptr, ptr %2, align 8, !tbaa !3
  %10 = getelementptr inbounds nuw %struct.nghttp2_map, ptr %9, i32 0, i32 0
  %11 = load ptr, ptr %10, align 8, !tbaa !14
  %12 = load ptr, ptr %2, align 8, !tbaa !3
  %13 = getelementptr inbounds nuw %struct.nghttp2_map, ptr %12, i32 0, i32 3
  %14 = load i64, ptr %13, align 8, !tbaa !13
  %15 = trunc i64 %14 to i32
  %16 = shl i32 1, %15
  %17 = zext i32 %16 to i64
  %18 = mul i64 16, %17
  call void @llvm.memset.p0.i64(ptr align 8 %11, i8 0, i64 %18, i1 false)
  %19 = load ptr, ptr %2, align 8, !tbaa !3
  %20 = getelementptr inbounds nuw %struct.nghttp2_map, ptr %19, i32 0, i32 2
  store i64 0, ptr %20, align 8, !tbaa !15
  br label %21

21:                                               ; preds = %8, %7
  ret void
}