; Function Attrs: mustprogress nofree norecurse nosync nounwind willreturn memory(write, argmem: readwrite, inaccessiblemem: none) uwtable
define hidden void @nghttp2_map_clear(ptr noundef captures(none) %0) local_unnamed_addr #9 {
  %2 = getelementptr inbounds nuw i8, ptr %0, i64 16
  %3 = load i64, ptr %2, align 8, !tbaa !11
  %4 = icmp eq i64 %3, 0
  br i1 %4, label %13, label %5

5:                                                ; preds = %1
  %6 = load ptr, ptr %0, align 8, !tbaa !10
  %7 = getelementptr inbounds nuw i8, ptr %0, i64 24
  %8 = load i64, ptr %7, align 8, !tbaa !12
  %9 = trunc i64 %8 to i32
  %10 = shl nuw i32 1, %9
  %11 = zext i32 %10 to i64
  %12 = shl nuw nsw i64 %11, 4
  tail call void @llvm.memset.p0.i64(ptr noundef nonnull align 8 dereferenceable(1) %6, i8 0, i64 %12, i1 false)
  store i64 0, ptr %2, align 8, !tbaa !11
  br label %13

13:                                               ; preds = %1, %5
  ret void
}